; Function Attrs: mustprogress uwtable
define hidden noundef zeroext i1 @_ZN3opt10opt_solver20maximize_objectives1ER10ref_vectorI4expr11ast_managerE(ptr noundef nonnull align 8 dereferenceable(1042) %0, ptr noundef nonnull align 8 dereferenceable(16) %1) local_unnamed_addr #4 align 2 personality ptr @__gxx_personality_v0 {
  %3 = alloca %class.obj_ref.58, align 8
  call void @llvm.lifetime.start.p0(i64 16, ptr nonnull %3) #26
  %4 = getelementptr inbounds nuw i8, ptr %0, i64 936
  %5 = load ptr, ptr %4, align 8, !tbaa !297
  store ptr null, ptr %3, align 8, !tbaa !409
  %6 = getelementptr inbounds nuw i8, ptr %3, i64 8
  store ptr %5, ptr %6, align 8, !tbaa !11
  %7 = getelementptr inbounds nuw i8, ptr %0, i64 976
  %8 = getelementptr inbounds nuw i8, ptr %1, i64 8
  br label %9

9:                                                ; preds = %34, %2
  %.09 = phi i32 [ 0, %2 ], [ %41, %34 ]
  %10 = load ptr, ptr %7, align 8, !tbaa !287
  %11 = icmp eq ptr %10, null
  br i1 %11, label %_ZNK6vectorIiLb0EjE4sizeEv.exit, label %12

12:                                               ; preds = %9
  %13 = getelementptr inbounds i8, ptr %10, i64 -4
  %14 = load i32, ptr %13, align 4, !tbaa !263
  br label %_ZNK6vectorIiLb0EjE4sizeEv.exit

_ZNK6vectorIiLb0EjE4sizeEv.exit:                  ; preds = %9, %12
  %.0.i = phi i32 [ %14, %12 ], [ 0, %9 ]
  %.not.not.not.not.not.not = icmp uge i32 %.09, %.0.i
  br i1 %.not.not.not.not.not.not, label %_ZNK6vectorIiLb0EjE4sizeEv.exit..critedge_crit_edge, label %17

_ZNK6vectorIiLb0EjE4sizeEv.exit..critedge_crit_edge: ; preds = %_ZNK6vectorIiLb0EjE4sizeEv.exit
  %.pre = load ptr, ptr %3, align 8, !tbaa !409
  br label %.critedge

15:                                               ; preds = %33, %17
  %16 = landingpad { ptr, i32 }
          cleanup
  call void @_ZN7obj_refI4expr11ast_managerED2Ev(ptr noundef nonnull align 8 dereferenceable(16) %3) #26
  call void @llvm.lifetime.end.p0(i64 16, ptr nonnull %3) #26
  resume { ptr, i32 } %16

17:                                               ; preds = %_ZNK6vectorIiLb0EjE4sizeEv.exit
  %18 = invoke noundef zeroext i1 @_ZN3opt10opt_solver18maximize_objectiveEjR7obj_refI4expr11ast_managerE(ptr noundef nonnull align 8 dereferenceable(1042) %0, i32 noundef %.09, ptr noundef nonnull align 8 dereferenceable(16) %3)
          to label %19 unwind label %15

19:                                               ; preds = %17
  %.pre12 = load ptr, ptr %3, align 8, !tbaa !409
  br i1 %18, label %20, label %.critedge

20:                                               ; preds = %19
  %.not.i.i.i.i = icmp eq ptr %.pre12, null
  br i1 %.not.i.i.i.i, label %_ZN15ref_vector_coreI4expr19ref_manager_wrapperIS0_11ast_managerEE7inc_refEPS0_.exit.i, label %21

21:                                               ; preds = %20
  %22 = getelementptr inbounds nuw i8, ptr %.pre12, i64 8
  %23 = load i32, ptr %22, align 4, !tbaa !267
  %24 = add i32 %23, 1
  store i32 %24, ptr %22, align 4, !tbaa !267
  br label %_ZN15ref_vector_coreI4expr19ref_manager_wrapperIS0_11ast_managerEE7inc_refEPS0_.exit.i

_ZN15ref_vector_coreI4expr19ref_manager_wrapperIS0_11ast_managerEE7inc_refEPS0_.exit.i: ; preds = %21, %20
  %25 = load ptr, ptr %8, align 8, !tbaa !15
  %26 = icmp eq ptr %25, null
  br i1 %26, label %33, label %27

27:                                               ; preds = %_ZN15ref_vector_coreI4expr19ref_manager_wrapperIS0_11ast_managerEE7inc_refEPS0_.exit.i
  %28 = getelementptr inbounds i8, ptr %25, i64 -4
  %29 = load i32, ptr %28, align 4, !tbaa !263
  %30 = getelementptr inbounds i8, ptr %25, i64 -8
  %31 = load i32, ptr %30, align 4, !tbaa !263
  %32 = icmp eq i32 %29, %31
  br i1 %32, label %33, label %34

33:                                               ; preds = %27, %_ZN15ref_vector_coreI4expr19ref_manager_wrapperIS0_11ast_managerEE7inc_refEPS0_.exit.i
  invoke void @_ZN6vectorIP4exprLb0EjE13expand_vectorEv(ptr noundef nonnull align 8 dereferenceable(8) %8)
          to label %.noexc unwind label %15

.noexc:                                           ; preds = %33
  %.pre.i.i = load ptr, ptr %8, align 8, !tbaa !15
  %.phi.trans.insert.i.i = getelementptr inbounds i8, ptr %.pre.i.i, i64 -4
  %.pre2.i.i = load i32, ptr %.phi.trans.insert.i.i, align 4, !tbaa !263
  br label %34

34:                                               ; preds = %.noexc, %27
  %35 = phi i32 [ %.pre2.i.i, %.noexc ], [ %29, %27 ]
  %36 = phi ptr [ %.pre.i.i, %.noexc ], [ %25, %27 ]
  %37 = getelementptr inbounds i8, ptr %36, i64 -4
  %38 = zext i32 %35 to i64
  %39 = getelementptr inbounds nuw ptr, ptr %36, i64 %38
  store ptr %.pre12, ptr %39, align 8, !tbaa !264
  %40 = add i32 %35, 1
  store i32 %40, ptr %37, align 4, !tbaa !263
  %41 = add nuw i32 %.09, 1
  br label %9, !llvm.loop !411

.critedge:                                        ; preds = %19, %_ZNK6vectorIiLb0EjE4sizeEv.exit..critedge_crit_edge
  %42 = phi ptr [ %.pre, %_ZNK6vectorIiLb0EjE4sizeEv.exit..critedge_crit_edge ], [ %.pre12, %19 ]
  %.not.i.i = icmp eq ptr %42, null
  br i1 %.not.i.i, label %_ZN7obj_refI4expr11ast_managerED2Ev.exit, label %43

43:                                               ; preds = %.critedge
  %44 = load ptr, ptr %6, align 8, !tbaa !412
  %45 = getelementptr inbounds nuw i8, ptr %42, i64 8
  %46 = load i32, ptr %45, align 4, !tbaa !267
  %47 = add i32 %46, -1
  store i32 %47, ptr %45, align 4, !tbaa !267
  %48 = icmp eq i32 %47, 0
  br i1 %48, label %49, label %_ZN7obj_refI4expr11ast_managerED2Ev.exit

49:                                               ; preds = %43
  invoke void @_ZN11ast_manager11delete_nodeEP3ast(ptr noundef nonnull align 8 dereferenceable(976) %44, ptr noundef nonnull %42)
          to label %_ZN7obj_refI4expr11ast_managerED2Ev.exit unwind label %50

50:                                               ; preds = %49
  %51 = landingpad { ptr, i32 }
          catch ptr null
  %52 = extractvalue { ptr, i32 } %51, 0
  call void @__clang_call_terminate(ptr %52) #27
  unreachable

_ZN7obj_refI4expr11ast_managerED2Ev.exit:         ; preds = %.critedge, %43, %49
  call void @llvm.lifetime.end.p0(i64 16, ptr nonnull %3) #26
  ret i1 %.not.not.not.not.not.not
}